target datalayout = "e-m:e-p270:32:32-p271:32:32-p272:64:64-i64:64-i128:128-f80:128-n8:16:32:64-S128"
target triple = "x86_64-pc-linux-gnu"

%struct.UEnumeration = type { ptr, ptr, ptr, ptr, ptr, ptr, ptr }
%struct.CurrencyList = type { ptr, i32 }
%struct.UCurrencyContext = type { i32, i32 }

; Function Attrs: mustprogress nounwind uwtable
define internal noundef ptr @_ZL22ucurr_nextCurrencyListP12UEnumerationPiP10UErrorCode(ptr noundef %0, ptr noundef %1, ptr noundef %2) #0 {
  %4 = alloca ptr, align 8
  %5 = alloca ptr, align 8
  %6 = alloca ptr, align 8
  %7 = alloca ptr, align 8
  %8 = alloca ptr, align 8
  %9 = alloca ptr, align 8
  %10 = alloca i32, align 4
  store ptr %0, ptr %5, align 8, !tbaa !123
  store ptr %1, ptr %6, align 8, !tbaa !20
  store ptr %2, ptr %7, align 8, !tbaa !22
  call void @llvm.lifetime.start.p0(i64 8, ptr %8) #12
  %11 = load ptr, ptr %5, align 8, !tbaa !123
  %12 = getelementptr inbounds nuw %struct.UEnumeration, ptr %11, i32 0, i32 1
  %13 = load ptr, ptr %12, align 8, !tbaa !130
  store ptr %13, ptr %8, align 8, !tbaa !125
  br label %14

14:                                               ; preds = %54, %3
  %15 = load ptr, ptr %8, align 8, !tbaa !125
  %16 = getelementptr inbounds nuw %struct.UCurrencyContext, ptr %15, i32 0, i32 1
  %17 = load i32, ptr %16, align 4, !tbaa !129
  %18 = icmp ult i32 %17, 308
  br i1 %18, label %19, label %55

19:                                               ; preds = %14
  call void @llvm.lifetime.start.p0(i64 8, ptr %9) #12
  %20 = load ptr, ptr %8, align 8, !tbaa !125
  %21 = getelementptr inbounds nuw %struct.UCurrencyContext, ptr %20, i32 0, i32 1
  %22 = load i32, ptr %21, align 4, !tbaa !129
  %23 = add i32 %22, 1
  store i32 %23, ptr %21, align 4, !tbaa !129
  %24 = zext i32 %22 to i64
  %25 = getelementptr inbounds nuw [309 x %struct.CurrencyList], ptr @_ZL13gCurrencyList, i64 0, i64 %24
  store ptr %25, ptr %9, align 8, !tbaa !201
  %26 = load ptr, ptr %8, align 8, !tbaa !125
  %27 = getelementptr inbounds nuw %struct.UCurrencyContext, ptr %26, i32 0, i32 0
  %28 = load i32, ptr %27, align 4, !tbaa !127
  %29 = icmp eq i32 %28, 2147483647
  br i1 %29, label %42, label %30

30:                                               ; preds = %19
  %31 = load ptr, ptr %9, align 8, !tbaa !201
  %32 = getelementptr inbounds nuw %struct.CurrencyList, ptr %31, i32 0, i32 1
  %33 = load i32, ptr %32, align 8, !tbaa !199
  %34 = load ptr, ptr %8, align 8, !tbaa !125
  %35 = getelementptr inbounds nuw %struct.UCurrencyContext, ptr %34, i32 0, i32 0
  %36 = load i32, ptr %35, align 4, !tbaa !127
  %37 = and i32 %33, %36
  %38 = load ptr, ptr %8, align 8, !tbaa !125
  %39 = getelementptr inbounds nuw %struct.UCurrencyContext, ptr %38, i32 0, i32 0
  %40 = load i32, ptr %39, align 4, !tbaa !127
  %41 = icmp eq i32 %37, %40
  br i1 %41, label %42, label %51

42:                                               ; preds = %30, %19
  %43 = load ptr, ptr %6, align 8, !tbaa !20
  %44 = icmp ne ptr %43, null
  br i1 %44, label %45, label %47

45:                                               ; preds = %42
  %46 = load ptr, ptr %6, align 8, !tbaa !20
  store i32 3, ptr %46, align 4, !tbaa !14
  br label %47

47:                                               ; preds = %45, %42
  %48 = load ptr, ptr %9, align 8, !tbaa !201
  %49 = getelementptr inbounds nuw %struct.CurrencyList, ptr %48, i32 0, i32 0
  %50 = load ptr, ptr %49, align 8, !tbaa !197
  store ptr %50, ptr %4, align 8
  store i32 1, ptr %10, align 4
  br label %52

51:                                               ; preds = %30
  store i32 0, ptr %10, align 4
  br label %52

52:                                               ; preds = %51, %47
  call void @llvm.lifetime.end.p0(i64 8, ptr %9) #12
  %53 = load i32, ptr %10, align 4
  switch i32 %53, label %61 [
    i32 0, label %54
  ]

54:                                               ; preds = %52
  br label %14, !llvm.loop !203

55:                                               ; preds = %14
  %56 = load ptr, ptr %6, align 8, !tbaa !20
  %57 = icmp ne ptr %56, null
  br i1 %57, label %58, label %60

58:                                               ; preds = %55
  %59 = load ptr, ptr %6, align 8, !tbaa !20
  store i32 0, ptr %59, align 4, !tbaa !14
  br label %60

60:                                               ; preds = %58, %55
  store ptr null, ptr %4, align 8
  store i32 1, ptr %10, align 4
  br label %61

61:                                               ; preds = %60, %52
  call void @llvm.lifetime.end.p0(i64 8, ptr %8) #12
  %62 = load ptr, ptr %4, align 8
  ret ptr %62
}