; Function Attrs: mustprogress nofree norecurse nosync nounwind memory(readwrite, inaccessiblemem: none) uwtable
define internal noundef ptr @_ZL22ucurr_nextCurrencyListP12UEnumerationPiP10UErrorCode(ptr noundef readonly captures(none) %0, ptr noundef writeonly %1, ptr readnone captures(none) %2) #16 {
  %4 = getelementptr inbounds nuw i8, ptr %0, i64 8
  %5 = load ptr, ptr %4, align 8, !tbaa !101
  %6 = getelementptr inbounds nuw i8, ptr %5, i64 4
  %.promoted = load i32, ptr %6, align 4, !tbaa !100
  %7 = zext i32 %.promoted to i64
  %umax = tail call i32 @llvm.umax.i32(i32 %.promoted, i32 308)
  %wide.trip.count = zext i32 %umax to i64
  br label %8

8:                                                ; preds = %14, %3
  %indvars.iv = phi i64 [ %indvars.iv.next, %14 ], [ %7, %3 ]
  %exitcond.not = icmp eq i64 %indvars.iv, %wide.trip.count
  br i1 %exitcond.not, label %22, label %9

9:                                                ; preds = %8
  %indvars.iv.next = add nuw nsw i64 %indvars.iv, 1
  %10 = trunc nuw nsw i64 %indvars.iv.next to i32
  store i32 %10, ptr %6, align 4, !tbaa !100
  %11 = getelementptr inbounds nuw [309 x %struct.CurrencyList], ptr @_ZL13gCurrencyList, i64 0, i64 %indvars.iv
  %12 = load i32, ptr %5, align 4, !tbaa !98
  %13 = icmp eq i32 %12, 2147483647
  br i1 %13, label %19, label %14

14:                                               ; preds = %9
  %15 = getelementptr inbounds nuw i8, ptr %11, i64 8
  %16 = load i32, ptr %15, align 8, !tbaa !122
  %17 = and i32 %16, %12
  %18 = icmp eq i32 %17, %12
  br i1 %18, label %19, label %8, !llvm.loop !123

19:                                               ; preds = %14, %9
  %.not18 = icmp eq ptr %1, null
  br i1 %.not18, label %.thread, label %20

20:                                               ; preds = %19
  store i32 3, ptr %1, align 4, !tbaa !12
  br label %.thread

.thread:                                          ; preds = %19, %20
  %21 = load ptr, ptr %11, align 8, !tbaa !119
  br label %24

22:                                               ; preds = %8
  %.not = icmp eq ptr %1, null
  br i1 %.not, label %24, label %23

23:                                               ; preds = %22
  store i32 0, ptr %1, align 4, !tbaa !12
  br label %24

24:                                               ; preds = %.thread, %22, %23
  %.2 = phi ptr [ null, %23 ], [ null, %22 ], [ %21, %.thread ]
  ret ptr %.2
}